target datalayout = "e-m:e-p270:32:32-p271:32:32-p272:64:64-i64:64-i128:128-f80:128-n8:16:32:64-S128"
target triple = "x86_64-pc-linux-gnu"

%struct.FunctionCallInfoBaseData = type { ptr, ptr, ptr, i32, i8, i16, [0 x %struct.NullableDatum] }
%struct.NullableDatum = type { i64, i8 }

@.str.7 = private unnamed_addr constant [7 x i8] c"cash.c\00", align 1
@.str.25 = private unnamed_addr constant [19 x i8] c"money out of range\00", align 1
@__func__.cash_mul_int64 = private unnamed_addr constant [15 x i8] c"cash_mul_int64\00", align 1

; Function Attrs: inlinehint nounwind uwtable
define internal i64 @Int64GetDatum(i64 noundef %0) #2 {
  %2 = alloca i64, align 8
  store i64 %0, ptr %2, align 8
  %3 = load i64, ptr %2, align 8
  ret i64 %3
}

; Function Attrs: inlinehint nounwind uwtable
define internal zeroext i1 @pg_mul_s64_overflow(i64 noundef %0, i64 noundef %1, ptr noundef %2) #2 {
  %4 = alloca i64, align 8
  %5 = alloca i64, align 8
  %6 = alloca ptr, align 8
  store i64 %0, ptr %4, align 8
  store i64 %1, ptr %5, align 8
  store ptr %2, ptr %6, align 8
  %7 = load i64, ptr %4, align 8
  %8 = load i64, ptr %5, align 8
  %9 = load ptr, ptr %6, align 8
  %10 = call { i64, i1 } @llvm.smul.with.overflow.i64(i64 %7, i64 %8)
  %11 = extractvalue { i64, i1 } %10, 1
  %12 = extractvalue { i64, i1 } %10, 0
  store i64 %12, ptr %9, align 8
  ret i1 %11
}

; Function Attrs: inlinehint nounwind uwtable
define internal i64 @DatumGetInt64(i64 noundef %0) #2 {
  %2 = alloca i64, align 8
  store i64 %0, ptr %2, align 8
  %3 = load i64, ptr %2, align 8
  ret i64 %3
}

; Function Attrs: inlinehint nounwind uwtable
define internal i64 @CashGetDatum(i64 noundef %0) #2 {
  %2 = alloca i64, align 8
  store i64 %0, ptr %2, align 8
  %3 = load i64, ptr %2, align 8
  %4 = call i64 @Int64GetDatum(i64 noundef %3)
  ret i64 %4
}

; Function Attrs: inlinehint nounwind uwtable
define internal i64 @cash_mul_int64(i64 noundef %0, i64 noundef %1) #2 {
  %3 = alloca i64, align 8
  %4 = alloca i64, align 8
  %5 = alloca i64, align 8
  store i64 %0, ptr %3, align 8
  store i64 %1, ptr %4, align 8
  call void @llvm.lifetime.start.p0(i64 8, ptr %5) #11
  %6 = load i64, ptr %3, align 8
  %7 = load i64, ptr %4, align 8
  %8 = call zeroext i1 @pg_mul_s64_overflow(i64 noundef %6, i64 noundef %7, ptr noundef %5)
  %9 = zext i1 %8 to i32
  %10 = icmp ne i32 %9, 0
  %11 = zext i1 %10 to i32
  %12 = sext i32 %11 to i64
  %13 = call i64 @llvm.expect.i64(i64 %12, i64 0)
  %14 = icmp ne i64 %13, 0
  br i1 %14, label %15, label %27

15:                                               ; preds = %2
  br label %16

16:                                               ; preds = %15
  br i1 true, label %17, label %19

17:                                               ; preds = %16
  %18 = call zeroext i1 @errstart_cold(i32 noundef 21, ptr noundef null) #14
  br i1 %18, label %21, label %24

19:                                               ; preds = %16
  %20 = call zeroext i1 @errstart(i32 noundef 21, ptr noundef null)
  br i1 %20, label %21, label %24

21:                                               ; preds = %19, %17
  %22 = call i32 @errcode(i32 noundef 50331778)
  %23 = call i32 (ptr, ...) @errmsg(ptr noundef @.str.25)
  call void @errfinish(ptr noundef @.str.7, i32 noundef 150, ptr noundef @__func__.cash_mul_int64)
  br label %24

24:                                               ; preds = %21, %19, %17
  unreachable

25:                                               ; No predecessors!
  br label %26

26:                                               ; preds = %25
  br label %27

27:                                               ; preds = %26, %2
  %28 = load i64, ptr %5, align 8
  call void @llvm.lifetime.end.p0(i64 8, ptr %5) #11
  ret i64 %28
}

; Function Attrs: inlinehint nounwind uwtable
define internal signext i16 @DatumGetInt16(i64 noundef %0) #2 {
  %2 = alloca i64, align 8
  store i64 %0, ptr %2, align 8
  %3 = load i64, ptr %2, align 8
  %4 = trunc i64 %3 to i16
  ret i16 %4
}

; Function Attrs: inlinehint nounwind uwtable
define internal i64 @DatumGetCash(i64 noundef %0) #2 {
  %2 = alloca i64, align 8
  store i64 %0, ptr %2, align 8
  %3 = load i64, ptr %2, align 8
  %4 = call i64 @DatumGetInt64(i64 noundef %3)
  ret i64 %4
}

; Function Attrs: nounwind uwtable
define dso_local i64 @cash_mul_int2(ptr noundef %0) #0 {
  %2 = alloca ptr, align 8
  %3 = alloca i64, align 8
  %4 = alloca i16, align 2
  store ptr %0, ptr %2, align 8
  call void @llvm.lifetime.start.p0(i64 8, ptr %3) #11
  %5 = load ptr, ptr %2, align 8
  %6 = getelementptr inbounds nuw %struct.FunctionCallInfoBaseData, ptr %5, i32 0, i32 6
  %7 = getelementptr inbounds [0 x %struct.NullableDatum], ptr %6, i64 0, i64 0
  %8 = getelementptr inbounds nuw %struct.NullableDatum, ptr %7, i32 0, i32 0
  %9 = load i64, ptr %8, align 8
  %10 = call i64 @DatumGetCash(i64 noundef %9)
  store i64 %10, ptr %3, align 8
  call void @llvm.lifetime.start.p0(i64 2, ptr %4) #11
  %11 = load ptr, ptr %2, align 8
  %12 = getelementptr inbounds nuw %struct.FunctionCallInfoBaseData, ptr %11, i32 0, i32 6
  %13 = getelementptr inbounds [0 x %struct.NullableDatum], ptr %12, i64 0, i64 1
  %14 = getelementptr inbounds nuw %struct.NullableDatum, ptr %13, i32 0, i32 0
  %15 = load i64, ptr %14, align 8
  %16 = call signext i16 @DatumGetInt16(i64 noundef %15)
  store i16 %16, ptr %4, align 2
  %17 = load i64, ptr %3, align 8
  %18 = load i16, ptr %4, align 2
  %19 = sext i16 %18 to i64
  %20 = call i64 @cash_mul_int64(i64 noundef %17, i64 noundef %19)
  %21 = call i64 @CashGetDatum(i64 noundef %20)
  call void @llvm.lifetime.end.p0(i64 2, ptr %4) #11
  call void @llvm.lifetime.end.p0(i64 8, ptr %3) #11
  ret i64 %21
}